; Function Attrs: cold nounwind optsize uwtable
define internal noundef i32 @sga_decode_end(ptr noundef readonly captures(none) %0) #2 {
  %2 = getelementptr inbounds nuw i8, ptr %0, i64 32
  %3 = load ptr, ptr %2, align 8, !tbaa !27
  %4 = getelementptr inbounds nuw i8, ptr %3, i64 1120
  tail call void @av_freep(ptr noundef nonnull %4) #12
  %5 = getelementptr inbounds nuw i8, ptr %3, i64 1128
  store i32 0, ptr %5, align 8, !tbaa !77
  %6 = getelementptr inbounds nuw i8, ptr %3, i64 1136
  tail call void @av_freep(ptr noundef nonnull %6) #12
  %7 = getelementptr inbounds nuw i8, ptr %3, i64 1144
  store i32 0, ptr %7, align 8, !tbaa !78
  ret i32 0
}